; Function Attrs: nounwind uwtable
define hidden ptr @SDL_AcquireGPUCommandBuffer_REAL(ptr noundef %0) local_unnamed_addr #0 {
  %2 = icmp eq ptr %0, null
  br i1 %2, label %3, label %5

3:                                                ; preds = %1
  %4 = tail call zeroext i1 (ptr, ...) @SDL_SetError_REAL(ptr noundef nonnull @.str.3) #7
  br label %23

5:                                                ; preds = %1
  %6 = getelementptr inbounds nuw i8, ptr %0, i64 560
  %7 = load ptr, ptr %6, align 8
  %8 = getelementptr inbounds nuw i8, ptr %0, i64 664
  %9 = load ptr, ptr %8, align 8
  %10 = tail call ptr %7(ptr noundef %9) #7
  %11 = icmp eq ptr %10, null
  br i1 %11, label %23, label %12

12:                                               ; preds = %5
  store ptr %0, ptr %10, align 8
  %13 = getelementptr inbounds nuw i8, ptr %10, i64 8
  store ptr %10, ptr %13, align 8
  %14 = getelementptr inbounds nuw i8, ptr %10, i64 16
  store i8 0, ptr %14, align 8
  %15 = getelementptr inbounds nuw i8, ptr %10, i64 72
  store i8 0, ptr %15, align 8
  %16 = getelementptr inbounds nuw i8, ptr %10, i64 80
  store ptr %10, ptr %16, align 8
  %17 = getelementptr inbounds nuw i8, ptr %10, i64 88
  store i8 0, ptr %17, align 8
  %18 = getelementptr inbounds nuw i8, ptr %10, i64 96
  store i8 0, ptr %18, align 8
  %19 = getelementptr inbounds nuw i8, ptr %10, i64 104
  store ptr %10, ptr %19, align 8
  %20 = getelementptr inbounds nuw i8, ptr %10, i64 112
  store i8 0, ptr %20, align 8
  %21 = getelementptr inbounds nuw i8, ptr %10, i64 120
  store i8 0, ptr %21, align 8
  %22 = getelementptr inbounds nuw i8, ptr %10, i64 121
  store i8 0, ptr %22, align 1
  br label %23

23:                                               ; preds = %5, %12, %3
  %.0 = phi ptr [ null, %3 ], [ %10, %12 ], [ null, %5 ]
  ret ptr %.0
}